target datalayout = "e-m:e-p270:32:32-p271:32:32-p272:64:64-i64:64-i128:128-f80:128-n8:16:32:64-S128"
target triple = "x86_64-pc-linux-gnu"

%struct.AVRational = type { i32, i32 }
%struct.AVFormatContext = type { ptr, ptr, ptr, ptr, ptr, i32, i32, ptr, i32, ptr, i32, ptr, ptr, i64, i64, i64, i32, i32, i32, i64, i64, ptr, i32, i32, ptr, i32, i32, i32, i32, ptr, i64, i32, i32, %struct.AVIOInterruptCB, i32, i32, i32, i32, i64, i32, i32, i32, i32, i32, i32, i32, i32, i32, i32, i32, i32, i64, i32, i32, i32, i32, i32, ptr, ptr, ptr, ptr, i32, ptr, ptr, ptr, ptr, i32, ptr, ptr, i64, ptr, ptr, ptr, i64 }
%struct.AVIOInterruptCB = type { ptr, ptr }
%struct.AVPacket = type { ptr, i64, i64, ptr, i32, i32, i32, ptr, i32, i64, i64, ptr, ptr, %struct.AVRational }

@.str.5 = private unnamed_addr constant [29 x i8] c"APV AU has invalid size: %u\0A\00", align 1
@.str.6 = private unnamed_addr constant [31 x i8] c"APV AU has invalid signature.\0A\00", align 1

; Function Attrs: alwaysinline nounwind willreturn memory(none) uwtable
define internal i32 @av_bswap32(i32 noundef %0) #5 {
  %2 = alloca i32, align 4
  store i32 %0, ptr %2, align 4, !tbaa !14
  %3 = load i32, ptr %2, align 4, !tbaa !14
  %4 = shl i32 %3, 8
  %5 = and i32 %4, 65280
  %6 = load i32, ptr %2, align 4, !tbaa !14
  %7 = lshr i32 %6, 8
  %8 = and i32 %7, 255
  %9 = or i32 %5, %8
  %10 = shl i32 %9, 16
  %11 = load i32, ptr %2, align 4, !tbaa !14
  %12 = lshr i32 %11, 16
  %13 = shl i32 %12, 8
  %14 = and i32 %13, 65280
  %15 = load i32, ptr %2, align 4, !tbaa !14
  %16 = lshr i32 %15, 16
  %17 = lshr i32 %16, 8
  %18 = and i32 %17, 255
  %19 = or i32 %14, %18
  %20 = or i32 %10, %19
  ret i32 %20
}

; Function Attrs: nounwind uwtable
define internal i32 @apv_read_packet(ptr noundef %0, ptr noundef %1) #0 {
  %3 = alloca i32, align 4
  %4 = alloca ptr, align 8
  %5 = alloca ptr, align 8
  %6 = alloca i32, align 4
  %7 = alloca i32, align 4
  %8 = alloca i32, align 4
  %9 = alloca i32, align 4
  store ptr %0, ptr %4, align 8, !tbaa !15
  store ptr %1, ptr %5, align 8, !tbaa !59
  call void @llvm.lifetime.start.p0(i64 4, ptr %6) #7
  call void @llvm.lifetime.start.p0(i64 4, ptr %7) #7
  call void @llvm.lifetime.start.p0(i64 4, ptr %8) #7
  %10 = load ptr, ptr %4, align 8, !tbaa !15
  %11 = getelementptr inbounds nuw %struct.AVFormatContext, ptr %10, i32 0, i32 4
  %12 = load ptr, ptr %11, align 8, !tbaa !17
  %13 = call i32 @avio_rb32(ptr noundef %12)
  store i32 %13, ptr %6, align 4, !tbaa !14
  %14 = load i32, ptr %6, align 4, !tbaa !14
  %15 = icmp eq i32 %14, 0
  br i1 %15, label %16, label %23

16:                                               ; preds = %2
  %17 = load ptr, ptr %4, align 8, !tbaa !15
  %18 = getelementptr inbounds nuw %struct.AVFormatContext, ptr %17, i32 0, i32 4
  %19 = load ptr, ptr %18, align 8, !tbaa !17
  %20 = call i32 @avio_feof(ptr noundef %19)
  %21 = icmp ne i32 %20, 0
  br i1 %21, label %22, label %23

22:                                               ; preds = %16
  store i32 -541478725, ptr %3, align 4
  store i32 1, ptr %9, align 4
  br label %60

23:                                               ; preds = %16, %2
  %24 = load i32, ptr %6, align 4, !tbaa !14
  %25 = icmp ult i32 %24, 24
  br i1 %25, label %29, label %26

26:                                               ; preds = %23
  %27 = load i32, ptr %6, align 4, !tbaa !14
  %28 = icmp ugt i32 %27, 16777216
  br i1 %28, label %29, label %32

29:                                               ; preds = %26, %23
  %30 = load ptr, ptr %4, align 8, !tbaa !15
  %31 = load i32, ptr %6, align 4, !tbaa !14
  call void (ptr, i32, ptr, ...) @av_log(ptr noundef %30, i32 noundef 16, ptr noundef @.str.5, i32 noundef %31)
  store i32 -1094995529, ptr %3, align 4
  store i32 1, ptr %9, align 4
  br label %60

32:                                               ; preds = %26
  %33 = load ptr, ptr %4, align 8, !tbaa !15
  %34 = getelementptr inbounds nuw %struct.AVFormatContext, ptr %33, i32 0, i32 4
  %35 = load ptr, ptr %34, align 8, !tbaa !17
  %36 = load ptr, ptr %5, align 8, !tbaa !59
  %37 = load i32, ptr %6, align 4, !tbaa !14
  %38 = call i32 @av_get_packet(ptr noundef %35, ptr noundef %36, i32 noundef %37)
  store i32 %38, ptr %8, align 4, !tbaa !14
  %39 = load i32, ptr %8, align 4, !tbaa !14
  %40 = icmp slt i32 %39, 0
  br i1 %40, label %41, label %43

41:                                               ; preds = %32
  %42 = load i32, ptr %8, align 4, !tbaa !14
  store i32 %42, ptr %3, align 4
  store i32 1, ptr %9, align 4
  br label %60

43:                                               ; preds = %32
  %44 = load ptr, ptr %5, align 8, !tbaa !59
  %45 = getelementptr inbounds nuw %struct.AVPacket, ptr %44, i32 0, i32 10
  %46 = load i64, ptr %45, align 8, !tbaa !61
  %47 = sub nsw i64 %46, 4
  store i64 %47, ptr %45, align 8, !tbaa !61
  %48 = load ptr, ptr %5, align 8, !tbaa !59
  %49 = getelementptr inbounds nuw %struct.AVPacket, ptr %48, i32 0, i32 6
  store i32 1, ptr %49, align 8, !tbaa !62
  %50 = load ptr, ptr %5, align 8, !tbaa !59
  %51 = getelementptr inbounds nuw %struct.AVPacket, ptr %50, i32 0, i32 3
  %52 = load ptr, ptr %51, align 8, !tbaa !63
  %53 = load i32, ptr %52, align 1, !tbaa !64
  %54 = call i32 @av_bswap32(i32 noundef %53) #8
  store i32 %54, ptr %7, align 4, !tbaa !14
  %55 = load i32, ptr %7, align 4, !tbaa !14
  %56 = icmp ne i32 %55, 1632663089
  br i1 %56, label %57, label %59

57:                                               ; preds = %43
  %58 = load ptr, ptr %4, align 8, !tbaa !15
  call void (ptr, i32, ptr, ...) @av_log(ptr noundef %58, i32 noundef 16, ptr noundef @.str.6)
  store i32 -1094995529, ptr %3, align 4
  store i32 1, ptr %9, align 4
  br label %60

59:                                               ; preds = %43
  store i32 0, ptr %3, align 4
  store i32 1, ptr %9, align 4
  br label %60

60:                                               ; preds = %59, %57, %41, %29, %22
  call void @llvm.lifetime.end.p0(i64 4, ptr %8) #7
  call void @llvm.lifetime.end.p0(i64 4, ptr %7) #7
  call void @llvm.lifetime.end.p0(i64 4, ptr %6) #7
  %61 = load i32, ptr %3, align 4
  ret i32 %61
}