; Function Attrs: nounwind uwtable
define internal range(i32 -2147483648, 1) i32 @apv_read_packet(ptr noundef %0, ptr noundef %1) #1 {
  %3 = getelementptr inbounds nuw i8, ptr %0, i64 32
  %4 = load ptr, ptr %3, align 8, !tbaa !13
  %5 = tail call i32 @avio_rb32(ptr noundef %4) #5
  %6 = icmp eq i32 %5, 0
  br i1 %6, label %7, label %10

7:                                                ; preds = %2
  %8 = load ptr, ptr %3, align 8, !tbaa !13
  %9 = tail call i32 @avio_feof(ptr noundef %8) #5
  %.not = icmp eq i32 %9, 0
  br i1 %.not, label %.thread, label %25

10:                                               ; preds = %2
  %11 = add i32 %5, -16777217
  %or.cond = icmp ult i32 %11, -16777193
  br i1 %or.cond, label %.thread, label %12

.thread:                                          ; preds = %7, %10
  tail call void (ptr, i32, ptr, ...) @av_log(ptr noundef nonnull %0, i32 noundef 16, ptr noundef nonnull @.str.5, i32 noundef %5) #5
  br label %25

12:                                               ; preds = %10
  %13 = load ptr, ptr %3, align 8, !tbaa !13
  %14 = tail call i32 @av_get_packet(ptr noundef %13, ptr noundef %1, i32 noundef %5) #5
  %15 = icmp slt i32 %14, 0
  br i1 %15, label %25, label %16

16:                                               ; preds = %12
  %17 = getelementptr inbounds nuw i8, ptr %1, i64 72
  %18 = load i64, ptr %17, align 8, !tbaa !52
  %19 = add nsw i64 %18, -4
  store i64 %19, ptr %17, align 8, !tbaa !52
  %20 = getelementptr inbounds nuw i8, ptr %1, i64 40
  store i32 1, ptr %20, align 8, !tbaa !53
  %21 = getelementptr inbounds nuw i8, ptr %1, i64 24
  %22 = load ptr, ptr %21, align 8, !tbaa !54
  %23 = load i32, ptr %22, align 1, !tbaa !12
  %.not20 = icmp eq i32 %23, 829837409
  br i1 %.not20, label %25, label %24

24:                                               ; preds = %16
  tail call void (ptr, i32, ptr, ...) @av_log(ptr noundef nonnull %0, i32 noundef 16, ptr noundef nonnull @.str.6) #5
  br label %25

25:                                               ; preds = %16, %12, %7, %24, %.thread
  %.0 = phi i32 [ -1094995529, %.thread ], [ -1094995529, %24 ], [ -541478725, %7 ], [ %14, %12 ], [ 0, %16 ]
  ret i32 %.0
}